target datalayout = "e-m:e-p270:32:32-p271:32:32-p272:64:64-i64:64-i128:128-f80:128-n8:16:32:64-S128"
target triple = "x86_64-pc-linux-gnu"

%struct.sharedObjectsStruct = type { ptr, ptr, ptr, ptr, ptr, ptr, ptr, ptr, [4 x ptr], [4 x ptr], [4 x ptr], [4 x ptr], ptr, ptr, ptr, ptr, ptr, ptr, ptr, ptr, ptr, ptr, ptr, ptr, ptr, ptr, ptr, ptr, ptr, ptr, ptr, ptr, ptr, ptr, ptr, ptr, ptr, ptr, ptr, ptr, ptr, ptr, ptr, ptr, ptr, ptr, ptr, ptr, ptr, ptr, ptr, ptr, ptr, ptr, ptr, ptr, ptr, ptr, ptr, ptr, ptr, ptr, ptr, ptr, ptr, ptr, ptr, ptr, ptr, ptr, ptr, ptr, ptr, ptr, ptr, ptr, ptr, ptr, ptr, ptr, ptr, ptr, ptr, ptr, ptr, ptr, ptr, ptr, [10 x ptr], [10000 x ptr], [32 x ptr], [32 x ptr], [32 x ptr], [32 x ptr], ptr, ptr }
%struct.redisObject = type { i32, i32, ptr }
%struct.setTypeIterator = type { ptr, i32, i32, ptr, ptr }
%struct.dict = type { ptr, [2 x ptr], [2 x i64], i64, i16, [2 x i8], i16, [0 x ptr] }
%struct.client = type { i64, i64, ptr, i8, i8, i8, i8, i32, ptr, ptr, ptr, ptr, ptr, i64, i64, i32, ptr, i32, i32, ptr, i64, ptr, ptr, ptr, ptr, ptr, i32, i32, i64, ptr, i64, ptr, i64, i64, i64, i32, ptr, i64, i64, i32, i32, i32, i32, i64, i64, ptr, i64, i64, i64, i64, i64, i64, i64, i64, [41 x i8], i32, ptr, i32, i32, i64, %struct.multiState, %struct.blockingState, i64, ptr, ptr, ptr, ptr, ptr, ptr, ptr, ptr, ptr, ptr, ptr, ptr, ptr, ptr, i64, ptr, i64, i32, ptr, ptr, ptr, i64, %struct.listNode, i64, i64, i32, i64, ptr }
%struct.multiState = type { ptr, i32, i32, i32, i64, i32 }
%struct.blockingState = type { i32, i64, i32, ptr, i32, i32, i64, ptr, ptr, i64 }
%struct.listNode = type { ptr, ptr, ptr }

@.str.1 = private unnamed_addr constant [8 x i8] c"t_set.c\00", align 1
@.str.3 = private unnamed_addr constant [21 x i8] c"Unknown set encoding\00", align 1
@shared = external global %struct.sharedObjectsStruct, align 8
@.str.17 = private unnamed_addr constant [12 x i8] c"length == 0\00", align 1

; Function Attrs: nounwind uwtable
define dso_local void @setTypeReleaseIterator(ptr noundef %0) #0 {
  %2 = alloca ptr, align 8
  store ptr %0, ptr %2, align 8, !tbaa !47
  %3 = load ptr, ptr %2, align 8, !tbaa !47
  %4 = getelementptr inbounds nuw %struct.setTypeIterator, ptr %3, i32 0, i32 1
  %5 = load i32, ptr %4, align 8, !tbaa !59
  %6 = icmp eq i32 %5, 2
  br i1 %6, label %7, label %11

7:                                                ; preds = %1
  %8 = load ptr, ptr %2, align 8, !tbaa !47
  %9 = getelementptr inbounds nuw %struct.setTypeIterator, ptr %8, i32 0, i32 3
  %10 = load ptr, ptr %9, align 8, !tbaa !60
  call void @dictReleaseIterator(ptr noundef %10)
  br label %11

11:                                               ; preds = %7, %1
  %12 = load ptr, ptr %2, align 8, !tbaa !47
  call void @zfree(ptr noundef %12)
  ret void
}

; Function Attrs: nounwind uwtable
define dso_local ptr @setTypeInitIterator(ptr noundef %0) #0 {
  %2 = alloca ptr, align 8
  %3 = alloca ptr, align 8
  store ptr %0, ptr %2, align 8, !tbaa !41
  call void @llvm.lifetime.start.p0(i64 8, ptr %3) #10
  %4 = call noalias ptr @zmalloc(i64 noundef 32) #12
  store ptr %4, ptr %3, align 8, !tbaa !47
  %5 = load ptr, ptr %2, align 8, !tbaa !41
  %6 = load ptr, ptr %3, align 8, !tbaa !47
  %7 = getelementptr inbounds nuw %struct.setTypeIterator, ptr %6, i32 0, i32 0
  store ptr %5, ptr %7, align 8, !tbaa !56
  %8 = load ptr, ptr %2, align 8, !tbaa !41
  %9 = load i32, ptr %8, align 8
  %10 = lshr i32 %9, 4
  %11 = and i32 %10, 15
  %12 = load ptr, ptr %3, align 8, !tbaa !47
  %13 = getelementptr inbounds nuw %struct.setTypeIterator, ptr %12, i32 0, i32 1
  store i32 %11, ptr %13, align 8, !tbaa !59
  %14 = load ptr, ptr %3, align 8, !tbaa !47
  %15 = getelementptr inbounds nuw %struct.setTypeIterator, ptr %14, i32 0, i32 1
  %16 = load i32, ptr %15, align 8, !tbaa !59
  %17 = icmp eq i32 %16, 2
  br i1 %17, label %18, label %25

18:                                               ; preds = %1
  %19 = load ptr, ptr %2, align 8, !tbaa !41
  %20 = getelementptr inbounds nuw %struct.redisObject, ptr %19, i32 0, i32 2
  %21 = load ptr, ptr %20, align 8, !tbaa !43
  %22 = call ptr @dictGetIterator(ptr noundef %21)
  %23 = load ptr, ptr %3, align 8, !tbaa !47
  %24 = getelementptr inbounds nuw %struct.setTypeIterator, ptr %23, i32 0, i32 3
  store ptr %22, ptr %24, align 8, !tbaa !60
  br label %44

25:                                               ; preds = %1
  %26 = load ptr, ptr %3, align 8, !tbaa !47
  %27 = getelementptr inbounds nuw %struct.setTypeIterator, ptr %26, i32 0, i32 1
  %28 = load i32, ptr %27, align 8, !tbaa !59
  %29 = icmp eq i32 %28, 6
  br i1 %29, label %30, label %33

30:                                               ; preds = %25
  %31 = load ptr, ptr %3, align 8, !tbaa !47
  %32 = getelementptr inbounds nuw %struct.setTypeIterator, ptr %31, i32 0, i32 2
  store i32 0, ptr %32, align 4, !tbaa !61
  br label %43

33:                                               ; preds = %25
  %34 = load ptr, ptr %3, align 8, !tbaa !47
  %35 = getelementptr inbounds nuw %struct.setTypeIterator, ptr %34, i32 0, i32 1
  %36 = load i32, ptr %35, align 8, !tbaa !59
  %37 = icmp eq i32 %36, 11
  br i1 %37, label %38, label %41

38:                                               ; preds = %33
  %39 = load ptr, ptr %3, align 8, !tbaa !47
  %40 = getelementptr inbounds nuw %struct.setTypeIterator, ptr %39, i32 0, i32 4
  store ptr null, ptr %40, align 8, !tbaa !62
  br label %42

41:                                               ; preds = %33
  call void (ptr, i32, ptr, ...) @_serverPanic(ptr noundef @.str.1, i32 noundef 320, ptr noundef @.str.3)
  call void @abort() #11
  unreachable

42:                                               ; preds = %38
  br label %43

43:                                               ; preds = %42, %30
  br label %44

44:                                               ; preds = %43, %18
  %45 = load ptr, ptr %3, align 8, !tbaa !47
  call void @llvm.lifetime.end.p0(i64 8, ptr %3) #10
  ret ptr %45
}

; Function Attrs: nounwind uwtable
define dso_local i64 @setTypeSize(ptr noundef %0) #0 {
  %2 = alloca i64, align 8
  %3 = alloca ptr, align 8
  store ptr %0, ptr %3, align 8, !tbaa !41
  %4 = load ptr, ptr %3, align 8, !tbaa !41
  %5 = load i32, ptr %4, align 8
  %6 = lshr i32 %5, 4
  %7 = and i32 %6, 15
  %8 = icmp eq i32 %7, 2
  br i1 %8, label %9, label %23

9:                                                ; preds = %1
  %10 = load ptr, ptr %3, align 8, !tbaa !41
  %11 = getelementptr inbounds nuw %struct.redisObject, ptr %10, i32 0, i32 2
  %12 = load ptr, ptr %11, align 8, !tbaa !43
  %13 = getelementptr inbounds nuw %struct.dict, ptr %12, i32 0, i32 2
  %14 = getelementptr inbounds [2 x i64], ptr %13, i64 0, i64 0
  %15 = load i64, ptr %14, align 8, !tbaa !10
  %16 = load ptr, ptr %3, align 8, !tbaa !41
  %17 = getelementptr inbounds nuw %struct.redisObject, ptr %16, i32 0, i32 2
  %18 = load ptr, ptr %17, align 8, !tbaa !43
  %19 = getelementptr inbounds nuw %struct.dict, ptr %18, i32 0, i32 2
  %20 = getelementptr inbounds [2 x i64], ptr %19, i64 0, i64 1
  %21 = load i64, ptr %20, align 8, !tbaa !10
  %22 = add i64 %15, %21
  store i64 %22, ptr %2, align 8
  br label %47

23:                                               ; preds = %1
  %24 = load ptr, ptr %3, align 8, !tbaa !41
  %25 = load i32, ptr %24, align 8
  %26 = lshr i32 %25, 4
  %27 = and i32 %26, 15
  %28 = icmp eq i32 %27, 6
  br i1 %28, label %29, label %35

29:                                               ; preds = %23
  %30 = load ptr, ptr %3, align 8, !tbaa !41
  %31 = getelementptr inbounds nuw %struct.redisObject, ptr %30, i32 0, i32 2
  %32 = load ptr, ptr %31, align 8, !tbaa !43
  %33 = call i32 @intsetLen(ptr noundef %32)
  %34 = zext i32 %33 to i64
  store i64 %34, ptr %2, align 8
  br label %47

35:                                               ; preds = %23
  %36 = load ptr, ptr %3, align 8, !tbaa !41
  %37 = load i32, ptr %36, align 8
  %38 = lshr i32 %37, 4
  %39 = and i32 %38, 15
  %40 = icmp eq i32 %39, 11
  br i1 %40, label %41, label %46

41:                                               ; preds = %35
  %42 = load ptr, ptr %3, align 8, !tbaa !41
  %43 = getelementptr inbounds nuw %struct.redisObject, ptr %42, i32 0, i32 2
  %44 = load ptr, ptr %43, align 8, !tbaa !43
  %45 = call i64 @lpLength(ptr noundef %44)
  store i64 %45, ptr %2, align 8
  br label %47

46:                                               ; preds = %35
  call void (ptr, i32, ptr, ...) @_serverPanic(ptr noundef @.str.1, i32 noundef 471, ptr noundef @.str.3)
  call void @abort() #11
  unreachable

47:                                               ; preds = %41, %29, %9
  %48 = load i64, ptr %2, align 8
  ret i64 %48
}

; Function Attrs: nounwind uwtable
define dso_local void @smembersCommand(ptr noundef %0) #0 {
  %2 = alloca ptr, align 8
  %3 = alloca ptr, align 8
  %4 = alloca ptr, align 8
  %5 = alloca i64, align 8
  %6 = alloca i64, align 8
  %7 = alloca ptr, align 8
  %8 = alloca i32, align 4
  %9 = alloca i64, align 8
  store ptr %0, ptr %2, align 8, !tbaa !71
  call void @llvm.lifetime.start.p0(i64 8, ptr %3) #10
  call void @llvm.lifetime.start.p0(i64 8, ptr %4) #10
  call void @llvm.lifetime.start.p0(i64 8, ptr %5) #10
  call void @llvm.lifetime.start.p0(i64 8, ptr %6) #10
  call void @llvm.lifetime.start.p0(i64 8, ptr %7) #10
  %10 = load ptr, ptr %2, align 8, !tbaa !71
  %11 = getelementptr inbounds nuw %struct.client, ptr %10, i32 0, i32 8
  %12 = load ptr, ptr %11, align 8, !tbaa !72
  %13 = load ptr, ptr %2, align 8, !tbaa !71
  %14 = getelementptr inbounds nuw %struct.client, ptr %13, i32 0, i32 16
  %15 = load ptr, ptr %14, align 8, !tbaa !81
  %16 = getelementptr inbounds ptr, ptr %15, i64 1
  %17 = load ptr, ptr %16, align 8, !tbaa !41
  %18 = call ptr @lookupKeyRead(ptr noundef %12, ptr noundef %17)
  store ptr %18, ptr %7, align 8, !tbaa !41
  %19 = load ptr, ptr %2, align 8, !tbaa !71
  %20 = load ptr, ptr %7, align 8, !tbaa !41
  %21 = call i32 @checkType(ptr noundef %19, ptr noundef %20, i32 noundef 2)
  %22 = icmp ne i32 %21, 0
  br i1 %22, label %23, label %24

23:                                               ; preds = %1
  store i32 1, ptr %8, align 4
  br label %73

24:                                               ; preds = %1
  %25 = load ptr, ptr %7, align 8, !tbaa !41
  %26 = icmp ne ptr %25, null
  br i1 %26, label %35, label %27

27:                                               ; preds = %24
  %28 = load ptr, ptr %2, align 8, !tbaa !71
  %29 = load ptr, ptr %2, align 8, !tbaa !71
  %30 = getelementptr inbounds nuw %struct.client, ptr %29, i32 0, i32 7
  %31 = load i32, ptr %30, align 4, !tbaa !92
  %32 = sext i32 %31 to i64
  %33 = getelementptr inbounds [4 x ptr], ptr getelementptr inbounds nuw (%struct.sharedObjectsStruct, ptr @shared, i32 0, i32 11), i64 0, i64 %32
  %34 = load ptr, ptr %33, align 8, !tbaa !41
  call void @addReply(ptr noundef %28, ptr noundef %34)
  store i32 1, ptr %8, align 4
  br label %73

35:                                               ; preds = %24
  call void @llvm.lifetime.start.p0(i64 8, ptr %9) #10
  %36 = load ptr, ptr %7, align 8, !tbaa !41
  %37 = call i64 @setTypeSize(ptr noundef %36)
  store i64 %37, ptr %9, align 8, !tbaa !10
  %38 = load ptr, ptr %2, align 8, !tbaa !71
  %39 = load i64, ptr %9, align 8, !tbaa !10
  call void @addReplySetLen(ptr noundef %38, i64 noundef %39)
  %40 = load ptr, ptr %7, align 8, !tbaa !41
  %41 = call ptr @setTypeInitIterator(ptr noundef %40)
  store ptr %41, ptr %3, align 8, !tbaa !47
  br label %42

42:                                               ; preds = %56, %35
  %43 = load ptr, ptr %3, align 8, !tbaa !47
  %44 = call i32 @setTypeNext(ptr noundef %43, ptr noundef %4, ptr noundef %5, ptr noundef %6)
  %45 = icmp ne i32 %44, -1
  br i1 %45, label %46, label %59

46:                                               ; preds = %42
  %47 = load ptr, ptr %4, align 8, !tbaa !5
  %48 = icmp ne ptr %47, null
  br i1 %48, label %49, label %53

49:                                               ; preds = %46
  %50 = load ptr, ptr %2, align 8, !tbaa !71
  %51 = load ptr, ptr %4, align 8, !tbaa !5
  %52 = load i64, ptr %5, align 8, !tbaa !10
  call void @addReplyBulkCBuffer(ptr noundef %50, ptr noundef %51, i64 noundef %52)
  br label %56

53:                                               ; preds = %46
  %54 = load ptr, ptr %2, align 8, !tbaa !71
  %55 = load i64, ptr %6, align 8, !tbaa !10
  call void @addReplyBulkLongLong(ptr noundef %54, i64 noundef %55)
  br label %56

56:                                               ; preds = %53, %49
  %57 = load i64, ptr %9, align 8, !tbaa !10
  %58 = add i64 %57, -1
  store i64 %58, ptr %9, align 8, !tbaa !10
  br label %42, !llvm.loop !137

59:                                               ; preds = %42
  %60 = load ptr, ptr %3, align 8, !tbaa !47
  call void @setTypeReleaseIterator(ptr noundef %60)
  %61 = load i64, ptr %9, align 8, !tbaa !10
  %62 = icmp eq i64 %61, 0
  %63 = xor i1 %62, true
  %64 = xor i1 %63, true
  %65 = zext i1 %64 to i32
  %66 = sext i32 %65 to i64
  %67 = call i64 @llvm.expect.i64(i64 %66, i64 1)
  %68 = icmp ne i64 %67, 0
  br i1 %68, label %69, label %70

69:                                               ; preds = %59
  br label %72

70:                                               ; preds = %59
  call void @_serverAssert(ptr noundef @.str.17, ptr noundef @.str.1, i32 noundef 1473)
  call void @abort() #11
  unreachable

71:                                               ; No predecessors!
  br label %72

72:                                               ; preds = %71, %69
  call void @llvm.lifetime.end.p0(i64 8, ptr %9) #10
  store i32 0, ptr %8, align 4
  br label %73

73:                                               ; preds = %72, %27, %23
  call void @llvm.lifetime.end.p0(i64 8, ptr %7) #10
  call void @llvm.lifetime.end.p0(i64 8, ptr %6) #10
  call void @llvm.lifetime.end.p0(i64 8, ptr %5) #10
  call void @llvm.lifetime.end.p0(i64 8, ptr %4) #10
  call void @llvm.lifetime.end.p0(i64 8, ptr %3) #10
  %74 = load i32, ptr %8, align 4
  switch i32 %74, label %76 [
    i32 0, label %75
    i32 1, label %75
  ]

75:                                               ; preds = %73, %73
  ret void

76:                                               ; preds = %73
  unreachable
}