; Function Attrs: nounwind uwtable
define dso_local void @smembersCommand(ptr noundef %0) local_unnamed_addr #0 {
  %2 = alloca ptr, align 8
  %3 = alloca i64, align 8
  %4 = alloca i64, align 8
  call void @llvm.lifetime.start.p0(i64 8, ptr nonnull %2) #10
  call void @llvm.lifetime.start.p0(i64 8, ptr nonnull %3) #10
  call void @llvm.lifetime.start.p0(i64 8, ptr nonnull %4) #10
  %5 = getelementptr inbounds nuw i8, ptr %0, i64 32
  %6 = load ptr, ptr %5, align 8, !tbaa !62
  %7 = getelementptr inbounds nuw i8, ptr %0, i64 96
  %8 = load ptr, ptr %7, align 8, !tbaa !72
  %9 = getelementptr inbounds nuw i8, ptr %8, i64 8
  %10 = load ptr, ptr %9, align 8, !tbaa !73
  %11 = tail call ptr @lookupKeyRead(ptr noundef %6, ptr noundef %10) #10
  %12 = tail call i32 @checkType(ptr noundef %0, ptr noundef %11, i32 noundef 2) #10
  %.not = icmp eq i32 %12, 0
  br i1 %.not, label %13, label %73

13:                                               ; preds = %1
  %.not18 = icmp eq ptr %11, null
  br i1 %.not18, label %14, label %20

14:                                               ; preds = %13
  %15 = getelementptr inbounds nuw i8, ptr %0, i64 28
  %16 = load i32, ptr %15, align 4, !tbaa !84
  %17 = sext i32 %16 to i64
  %18 = getelementptr inbounds [4 x ptr], ptr getelementptr inbounds nuw (i8, ptr @shared, i64 160), i64 0, i64 %17
  %19 = load ptr, ptr %18, align 8, !tbaa !73
  tail call void @addReply(ptr noundef nonnull %0, ptr noundef %19) #10
  br label %73

20:                                               ; preds = %13
  %21 = load i32, ptr %11, align 8
  %22 = lshr i32 %21, 4
  %23 = and i32 %22, 15
  switch i32 %23, label %41 [
    i32 2, label %24
    i32 6, label %32
    i32 11, label %37
  ]

24:                                               ; preds = %20
  %25 = getelementptr inbounds nuw i8, ptr %11, i64 8
  %26 = load ptr, ptr %25, align 8, !tbaa !38
  %27 = getelementptr inbounds nuw i8, ptr %26, i64 24
  %28 = load i64, ptr %27, align 8, !tbaa !50
  %29 = getelementptr inbounds nuw i8, ptr %26, i64 32
  %30 = load i64, ptr %29, align 8, !tbaa !50
  %31 = add i64 %30, %28
  br label %setTypeSize.exit

32:                                               ; preds = %20
  %33 = getelementptr inbounds nuw i8, ptr %11, i64 8
  %34 = load ptr, ptr %33, align 8, !tbaa !38
  %35 = tail call i32 @intsetLen(ptr noundef %34) #10
  %36 = zext i32 %35 to i64
  br label %setTypeSize.exit

37:                                               ; preds = %20
  %38 = getelementptr inbounds nuw i8, ptr %11, i64 8
  %39 = load ptr, ptr %38, align 8, !tbaa !38
  %40 = tail call i64 @lpLength(ptr noundef %39) #10
  br label %setTypeSize.exit

41:                                               ; preds = %20
  tail call void (ptr, i32, ptr, ...) @_serverPanic(ptr noundef nonnull @.str.1, i32 noundef 471, ptr noundef nonnull @.str.3) #10
  tail call void @abort() #11
  unreachable

setTypeSize.exit:                                 ; preds = %24, %32, %37
  %.0.i = phi i64 [ %31, %24 ], [ %36, %32 ], [ %40, %37 ]
  tail call void @addReplySetLen(ptr noundef nonnull %0, i64 noundef %.0.i) #10
  %42 = tail call noalias dereferenceable_or_null(32) ptr @zmalloc(i64 noundef 32) #12
  store ptr %11, ptr %42, align 8, !tbaa !41
  %43 = load i32, ptr %11, align 8
  %44 = lshr i32 %43, 4
  %45 = and i32 %44, 15
  %46 = getelementptr inbounds nuw i8, ptr %42, i64 8
  store i32 %45, ptr %46, align 8, !tbaa !45
  switch i32 %45, label %56 [
    i32 2, label %47
    i32 6, label %52
    i32 11, label %54
  ]

47:                                               ; preds = %setTypeSize.exit
  %48 = getelementptr inbounds nuw i8, ptr %11, i64 8
  %49 = load ptr, ptr %48, align 8, !tbaa !38
  %50 = tail call ptr @dictGetIterator(ptr noundef %49) #10
  %51 = getelementptr inbounds nuw i8, ptr %42, i64 16
  store ptr %50, ptr %51, align 8, !tbaa !46
  br label %setTypeInitIterator.exit

52:                                               ; preds = %setTypeSize.exit
  %53 = getelementptr inbounds nuw i8, ptr %42, i64 12
  store i32 0, ptr %53, align 4, !tbaa !47
  br label %setTypeInitIterator.exit

54:                                               ; preds = %setTypeSize.exit
  %55 = getelementptr inbounds nuw i8, ptr %42, i64 24
  store ptr null, ptr %55, align 8, !tbaa !48
  br label %setTypeInitIterator.exit

56:                                               ; preds = %setTypeSize.exit
  tail call void (ptr, i32, ptr, ...) @_serverPanic(ptr noundef nonnull @.str.1, i32 noundef 320, ptr noundef nonnull @.str.3) #10
  tail call void @abort() #11
  unreachable

setTypeInitIterator.exit:                         ; preds = %47, %52, %54
  %57 = call i32 @setTypeNext(ptr noundef nonnull %42, ptr noundef nonnull %2, ptr noundef nonnull %3, ptr noundef nonnull %4)
  %.not1921 = icmp eq i32 %57, -1
  br i1 %.not1921, label %._crit_edge, label %.lr.ph

.lr.ph:                                           ; preds = %setTypeInitIterator.exit, %63
  %.022 = phi i64 [ %64, %63 ], [ %.0.i, %setTypeInitIterator.exit ]
  %58 = load ptr, ptr %2, align 8, !tbaa !49
  %.not20 = icmp eq ptr %58, null
  br i1 %.not20, label %61, label %59

59:                                               ; preds = %.lr.ph
  %60 = load i64, ptr %3, align 8, !tbaa !50
  call void @addReplyBulkCBuffer(ptr noundef nonnull %0, ptr noundef nonnull %58, i64 noundef %60) #10
  br label %63

61:                                               ; preds = %.lr.ph
  %62 = load i64, ptr %4, align 8, !tbaa !50
  call void @addReplyBulkLongLong(ptr noundef nonnull %0, i64 noundef %62) #10
  br label %63

63:                                               ; preds = %61, %59
  %64 = add i64 %.022, -1
  %65 = call i32 @setTypeNext(ptr noundef nonnull %42, ptr noundef nonnull %2, ptr noundef nonnull %3, ptr noundef nonnull %4)
  %.not19 = icmp eq i32 %65, -1
  br i1 %.not19, label %._crit_edge, label %.lr.ph, !llvm.loop !126

._crit_edge:                                      ; preds = %63, %setTypeInitIterator.exit
  %.0.lcssa = phi i64 [ %.0.i, %setTypeInitIterator.exit ], [ %64, %63 ]
  %66 = load i32, ptr %46, align 8, !tbaa !45
  %67 = icmp eq i32 %66, 2
  br i1 %67, label %68, label %setTypeReleaseIterator.exit

68:                                               ; preds = %._crit_edge
  %69 = getelementptr inbounds nuw i8, ptr %42, i64 16
  %70 = load ptr, ptr %69, align 8, !tbaa !46
  call void @dictReleaseIterator(ptr noundef %70) #10
  br label %setTypeReleaseIterator.exit

setTypeReleaseIterator.exit:                      ; preds = %._crit_edge, %68
  call void @zfree(ptr noundef nonnull %42) #10
  %71 = icmp eq i64 %.0.lcssa, 0
  br i1 %71, label %73, label %72, !prof !40

72:                                               ; preds = %setTypeReleaseIterator.exit
  call void @_serverAssert(ptr noundef nonnull @.str.17, ptr noundef nonnull @.str.1, i32 noundef 1473) #10
  call void @abort() #11
  unreachable

73:                                               ; preds = %setTypeReleaseIterator.exit, %1, %14
  call void @llvm.lifetime.end.p0(i64 8, ptr nonnull %4) #10
  call void @llvm.lifetime.end.p0(i64 8, ptr nonnull %3) #10
  call void @llvm.lifetime.end.p0(i64 8, ptr nonnull %2) #10
  ret void
}